target datalayout = "e-m:e-p270:32:32-p271:32:32-p272:64:64-i64:64-i128:128-f80:128-n8:16:32:64-S128"
target triple = "x86_64-pc-linux-gnu"

%struct.expert_field = type { i32, i32 }

@ei_nas_5gs_unknown_value = internal global %struct.expert_field zeroinitializer, align 4
@hf_nas_5gs_tac = internal global i32 0, align 4
@ett_nas_5gs_mm_part_sal = internal global i32 0, align 4
@de_nas_5gs_mm_sal.flags_sal = internal constant [4 x ptr] [ptr @hf_nas_5gs_mm_sal_al_t, ptr @hf_nas_5gs_mm_sal_t_li, ptr @hf_nas_5gs_mm_sal_num_e, ptr null], align 16
@.str.1725 = private unnamed_addr constant [30 x i8] c"Partial service area list  %u\00", align 1

; Function Attrs: null_pointer_is_valid sspstrong uwtable
define internal zeroext i16 @de_nas_5gs_mm_sal(ptr noundef %0, ptr noundef %1, ptr noundef %2, i32 noundef %3, i32 noundef %4, ptr noundef %5, i32 noundef %6) #0 {
  %8 = alloca ptr, align 8
  %9 = alloca ptr, align 8
  %10 = alloca ptr, align 8
  %11 = alloca i32, align 4
  %12 = alloca i32, align 4
  %13 = alloca ptr, align 8
  %14 = alloca i32, align 4
  %15 = alloca ptr, align 8
  %16 = alloca ptr, align 8
  %17 = alloca i32, align 4
  %18 = alloca i32, align 4
  %19 = alloca i32, align 4
  %20 = alloca i8, align 1
  %21 = alloca i8, align 1
  %22 = alloca i8, align 1
  store ptr %0, ptr %8, align 8
  store ptr %1, ptr %9, align 8
  store ptr %2, ptr %10, align 8
  store i32 %3, ptr %11, align 4
  store i32 %4, ptr %12, align 4
  store ptr %5, ptr %13, align 8
  store i32 %6, ptr %14, align 4
  call void @llvm.lifetime.start.p0(i64 8, ptr %15) #11
  call void @llvm.lifetime.start.p0(i64 8, ptr %16) #11
  call void @llvm.lifetime.start.p0(i64 4, ptr %17) #11
  store i32 1, ptr %17, align 4
  call void @llvm.lifetime.start.p0(i64 4, ptr %18) #11
  %23 = load i32, ptr %11, align 4
  store i32 %23, ptr %18, align 4
  call void @llvm.lifetime.start.p0(i64 4, ptr %19) #11
  call void @llvm.lifetime.start.p0(i64 1, ptr %20) #11
  call void @llvm.lifetime.start.p0(i64 1, ptr %21) #11
  call void @llvm.lifetime.start.p0(i64 1, ptr %22) #11
  br label %24

24:                                               ; preds = %135, %7
  %25 = load i32, ptr %18, align 4
  %26 = load i32, ptr %11, align 4
  %27 = sub i32 %25, %26
  %28 = load i32, ptr %12, align 4
  %29 = icmp ult i32 %27, %28
  br i1 %29, label %30, label %142

30:                                               ; preds = %24
  %31 = load i32, ptr %18, align 4
  store i32 %31, ptr %19, align 4
  %32 = load ptr, ptr %9, align 8
  %33 = load ptr, ptr %8, align 8
  %34 = load i32, ptr %18, align 4
  %35 = load i32, ptr @ett_nas_5gs_mm_part_sal, align 4
  %36 = load i32, ptr %17, align 4
  %37 = call ptr (ptr, ptr, i32, i32, i32, ptr, ptr, ...) @proto_tree_add_subtree_format(ptr noundef %32, ptr noundef %33, i32 noundef %34, i32 noundef -1, i32 noundef %35, ptr noundef %16, ptr noundef @.str.1725, i32 noundef %36)
  store ptr %37, ptr %15, align 8
  %38 = load ptr, ptr %8, align 8
  %39 = load i32, ptr %18, align 4
  %40 = call zeroext i8 @tvb_get_uint8(ptr noundef %38, i32 noundef %39)
  store i8 %40, ptr %20, align 1
  %41 = load i8, ptr %20, align 1
  %42 = zext i8 %41 to i32
  %43 = and i32 %42, 96
  %44 = ashr i32 %43, 5
  %45 = trunc i32 %44 to i8
  store i8 %45, ptr %21, align 1
  %46 = load i8, ptr %20, align 1
  %47 = zext i8 %46 to i32
  %48 = and i32 %47, 31
  %49 = add i32 %48, 1
  %50 = trunc i32 %49 to i8
  store i8 %50, ptr %22, align 1
  %51 = load ptr, ptr %15, align 8
  %52 = load ptr, ptr %8, align 8
  %53 = load i32, ptr %18, align 4
  call void @proto_tree_add_bitmask_list(ptr noundef %51, ptr noundef %52, i32 noundef %53, i32 noundef 1, ptr noundef @de_nas_5gs_mm_sal.flags_sal, i32 noundef 0)
  %54 = load i32, ptr %18, align 4
  %55 = add i32 %54, 1
  store i32 %55, ptr %18, align 4
  %56 = load i8, ptr %21, align 1
  %57 = zext i8 %56 to i32
  switch i32 %57, label %127 [
    i32 0, label %58
    i32 1, label %81
    i32 2, label %96
    i32 3, label %119
  ]

58:                                               ; preds = %30
  %59 = load ptr, ptr %8, align 8
  %60 = load ptr, ptr %10, align 8
  %61 = load ptr, ptr %15, align 8
  %62 = load i32, ptr %18, align 4
  %63 = call i32 @dissect_e212_mcc_mnc(ptr noundef %59, ptr noundef %60, ptr noundef %61, i32 noundef %62, i32 noundef 8, i1 noundef zeroext true)
  %64 = load i32, ptr %18, align 4
  %65 = add i32 %64, 3
  store i32 %65, ptr %18, align 4
  br label %66

66:                                               ; preds = %70, %58
  %67 = load i8, ptr %22, align 1
  %68 = zext i8 %67 to i32
  %69 = icmp sgt i32 %68, 0
  br i1 %69, label %70, label %80

70:                                               ; preds = %66
  %71 = load ptr, ptr %15, align 8
  %72 = load i32, ptr @hf_nas_5gs_tac, align 4
  %73 = load ptr, ptr %8, align 8
  %74 = load i32, ptr %18, align 4
  %75 = call ptr @proto_tree_add_item(ptr noundef %71, i32 noundef %72, ptr noundef %73, i32 noundef %74, i32 noundef 3, i32 noundef 0)
  %76 = load i32, ptr %18, align 4
  %77 = add i32 %76, 3
  store i32 %77, ptr %18, align 4
  %78 = load i8, ptr %22, align 1
  %79 = add i8 %78, -1
  store i8 %79, ptr %22, align 1
  br label %66, !llvm.loop !33

80:                                               ; preds = %66
  br label %135

81:                                               ; preds = %30
  %82 = load ptr, ptr %8, align 8
  %83 = load ptr, ptr %10, align 8
  %84 = load ptr, ptr %15, align 8
  %85 = load i32, ptr %18, align 4
  %86 = call i32 @dissect_e212_mcc_mnc(ptr noundef %82, ptr noundef %83, ptr noundef %84, i32 noundef %85, i32 noundef 8, i1 noundef zeroext true)
  %87 = load i32, ptr %18, align 4
  %88 = add i32 %87, 3
  store i32 %88, ptr %18, align 4
  %89 = load ptr, ptr %15, align 8
  %90 = load i32, ptr @hf_nas_5gs_tac, align 4
  %91 = load ptr, ptr %8, align 8
  %92 = load i32, ptr %18, align 4
  %93 = call ptr @proto_tree_add_item(ptr noundef %89, i32 noundef %90, ptr noundef %91, i32 noundef %92, i32 noundef 3, i32 noundef 0)
  %94 = load i32, ptr %18, align 4
  %95 = add i32 %94, 3
  store i32 %95, ptr %18, align 4
  br label %135

96:                                               ; preds = %30
  br label %97

97:                                               ; preds = %101, %96
  %98 = load i8, ptr %22, align 1
  %99 = zext i8 %98 to i32
  %100 = icmp sgt i32 %99, 0
  br i1 %100, label %101, label %118

101:                                              ; preds = %97
  %102 = load ptr, ptr %8, align 8
  %103 = load ptr, ptr %10, align 8
  %104 = load ptr, ptr %15, align 8
  %105 = load i32, ptr %18, align 4
  %106 = call i32 @dissect_e212_mcc_mnc(ptr noundef %102, ptr noundef %103, ptr noundef %104, i32 noundef %105, i32 noundef 8, i1 noundef zeroext true)
  %107 = load i32, ptr %18, align 4
  %108 = add i32 %107, 3
  store i32 %108, ptr %18, align 4
  %109 = load ptr, ptr %15, align 8
  %110 = load i32, ptr @hf_nas_5gs_tac, align 4
  %111 = load ptr, ptr %8, align 8
  %112 = load i32, ptr %18, align 4
  %113 = call ptr @proto_tree_add_item(ptr noundef %109, i32 noundef %110, ptr noundef %111, i32 noundef %112, i32 noundef 3, i32 noundef 0)
  %114 = load i32, ptr %18, align 4
  %115 = add i32 %114, 3
  store i32 %115, ptr %18, align 4
  %116 = load i8, ptr %22, align 1
  %117 = add i8 %116, -1
  store i8 %117, ptr %22, align 1
  br label %97, !llvm.loop !34

118:                                              ; preds = %97
  br label %135

119:                                              ; preds = %30
  %120 = load ptr, ptr %8, align 8
  %121 = load ptr, ptr %10, align 8
  %122 = load ptr, ptr %15, align 8
  %123 = load i32, ptr %18, align 4
  %124 = call i32 @dissect_e212_mcc_mnc(ptr noundef %120, ptr noundef %121, ptr noundef %122, i32 noundef %123, i32 noundef 8, i1 noundef zeroext true)
  %125 = load i32, ptr %18, align 4
  %126 = add i32 %125, 3
  store i32 %126, ptr %18, align 4
  br label %135

127:                                              ; preds = %30
  %128 = load ptr, ptr %15, align 8
  %129 = load ptr, ptr %10, align 8
  %130 = load ptr, ptr %8, align 8
  %131 = load i32, ptr %18, align 4
  %132 = load i32, ptr %12, align 4
  %133 = sub i32 %132, 1
  %134 = call ptr @proto_tree_add_expert(ptr noundef %128, ptr noundef %129, ptr noundef @ei_nas_5gs_unknown_value, ptr noundef %130, i32 noundef %131, i32 noundef %133)
  br label %135

135:                                              ; preds = %127, %119, %118, %81, %80
  %136 = load ptr, ptr %16, align 8
  %137 = load i32, ptr %18, align 4
  %138 = load i32, ptr %19, align 4
  %139 = sub i32 %137, %138
  call void @proto_item_set_len(ptr noundef %136, i32 noundef %139)
  %140 = load i32, ptr %17, align 4
  %141 = add i32 %140, 1
  store i32 %141, ptr %17, align 4
  br label %24, !llvm.loop !35

142:                                              ; preds = %24
  %143 = load i32, ptr %12, align 4
  %144 = trunc i32 %143 to i16
  call void @llvm.lifetime.end.p0(i64 1, ptr %22) #11
  call void @llvm.lifetime.end.p0(i64 1, ptr %21) #11
  call void @llvm.lifetime.end.p0(i64 1, ptr %20) #11
  call void @llvm.lifetime.end.p0(i64 4, ptr %19) #11
  call void @llvm.lifetime.end.p0(i64 4, ptr %18) #11
  call void @llvm.lifetime.end.p0(i64 4, ptr %17) #11
  call void @llvm.lifetime.end.p0(i64 8, ptr %16) #11
  call void @llvm.lifetime.end.p0(i64 8, ptr %15) #11
  ret i16 %144
}