; Function Attrs: null_pointer_is_valid sspstrong uwtable
define internal noundef zeroext i16 @de_nas_5gs_mm_sal(ptr noundef %0, ptr noundef %1, ptr noundef %2, i32 noundef %3, i32 noundef %4, ptr readnone captures(none) %5, i32 %6) #0 {
  %8 = alloca ptr, align 8
  call void @llvm.lifetime.start.p0(i64 8, ptr nonnull %8) #12
  %.not75 = icmp eq i32 %4, 0
  br i1 %.not75, label %._crit_edge, label %.lr.ph

.lr.ph:                                           ; preds = %7, %.loopexit
  %.06274 = phi i32 [ %41, %.loopexit ], [ 1, %7 ]
  %.06373 = phi i32 [ %.2, %.loopexit ], [ %3, %7 ]
  %9 = load i32, ptr @ett_nas_5gs_mm_part_sal, align 4
  %10 = call ptr (ptr, ptr, i32, i32, i32, ptr, ptr, ...) @proto_tree_add_subtree_format(ptr noundef %1, ptr noundef %0, i32 noundef %.06373, i32 noundef -1, i32 noundef %9, ptr noundef nonnull %8, ptr noundef nonnull @.str.1725, i32 noundef %.06274)
  %11 = call zeroext i8 @tvb_get_uint8(ptr noundef %0, i32 noundef %.06373)
  %12 = lshr i8 %11, 5
  %13 = and i8 %12, 3
  %14 = and i8 %11, 31
  %narrow = add nuw nsw i8 %14, 1
  call void @proto_tree_add_bitmask_list(ptr noundef %10, ptr noundef %0, i32 noundef %.06373, i32 noundef 1, ptr noundef nonnull @de_nas_5gs_mm_sal.flags_sal, i32 noundef 0)
  %15 = add i32 %.06373, 1
  switch i8 %13, label %default.unreachable78 [
    i8 0, label %16
    i8 1, label %24
    i8 2, label %.preheader
    i8 3, label %36
  ]

16:                                               ; preds = %.lr.ph
  %17 = call i32 @dissect_e212_mcc_mnc(ptr noundef %0, ptr noundef %2, ptr noundef %10, i32 noundef %15, i32 noundef 8, i1 noundef zeroext true)
  %18 = add i32 %.06373, 4
  br label %19

19:                                               ; preds = %16, %19
  %.072 = phi i8 [ %narrow, %16 ], [ %23, %19 ]
  %.16471 = phi i32 [ %18, %16 ], [ %22, %19 ]
  %20 = load i32, ptr @hf_nas_5gs_tac, align 4
  %21 = call ptr @proto_tree_add_item(ptr noundef %10, i32 noundef %20, ptr noundef %0, i32 noundef %.16471, i32 noundef 3, i32 noundef 0)
  %22 = add i32 %.16471, 3
  %23 = add nsw i8 %.072, -1
  %.not67 = icmp eq i8 %23, 0
  br i1 %.not67, label %.loopexit, label %19, !llvm.loop !33

24:                                               ; preds = %.lr.ph
  %25 = call i32 @dissect_e212_mcc_mnc(ptr noundef %0, ptr noundef %2, ptr noundef %10, i32 noundef %15, i32 noundef 8, i1 noundef zeroext true)
  %26 = add i32 %.06373, 4
  %27 = load i32, ptr @hf_nas_5gs_tac, align 4
  %28 = call ptr @proto_tree_add_item(ptr noundef %10, i32 noundef %27, ptr noundef %0, i32 noundef %26, i32 noundef 3, i32 noundef 0)
  %29 = add i32 %.06373, 7
  br label %.loopexit

.preheader:                                       ; preds = %.lr.ph, %.preheader
  %.170 = phi i8 [ %35, %.preheader ], [ %narrow, %.lr.ph ]
  %.369 = phi i32 [ %34, %.preheader ], [ %15, %.lr.ph ]
  %30 = call i32 @dissect_e212_mcc_mnc(ptr noundef %0, ptr noundef %2, ptr noundef %10, i32 noundef %.369, i32 noundef 8, i1 noundef zeroext true)
  %31 = add i32 %.369, 3
  %32 = load i32, ptr @hf_nas_5gs_tac, align 4
  %33 = call ptr @proto_tree_add_item(ptr noundef %10, i32 noundef %32, ptr noundef %0, i32 noundef %31, i32 noundef 3, i32 noundef 0)
  %34 = add i32 %.369, 6
  %35 = add nsw i8 %.170, -1
  %.not = icmp eq i8 %35, 0
  br i1 %.not, label %.loopexit, label %.preheader, !llvm.loop !34

36:                                               ; preds = %.lr.ph
  %37 = call i32 @dissect_e212_mcc_mnc(ptr noundef %0, ptr noundef %2, ptr noundef %10, i32 noundef %15, i32 noundef 8, i1 noundef zeroext true)
  %38 = add i32 %.06373, 4
  br label %.loopexit

default.unreachable78:                            ; preds = %.lr.ph
  unreachable

.loopexit:                                        ; preds = %.preheader, %19, %36, %24
  %.2 = phi i32 [ %38, %36 ], [ %29, %24 ], [ %22, %19 ], [ %34, %.preheader ]
  %39 = load ptr, ptr %8, align 8
  %40 = sub i32 %.2, %.06373
  call void @proto_item_set_len(ptr noundef %39, i32 noundef %40)
  %41 = add i32 %.06274, 1
  %42 = sub i32 %.2, %3
  %43 = icmp ult i32 %42, %4
  br i1 %43, label %.lr.ph, label %._crit_edge, !llvm.loop !35

._crit_edge:                                      ; preds = %.loopexit, %7
  %44 = trunc i32 %4 to i16
  call void @llvm.lifetime.end.p0(i64 8, ptr nonnull %8) #12
  ret i16 %44
}